target datalayout = "e-m:e-p270:32:32-p271:32:32-p272:64:64-i64:64-i128:128-f80:128-n8:16:32:64-S128"
target triple = "x86_64-pc-linux-gnu"

%struct.PJ_XY = type { double, double }
%union.PJ_COORD = type { [4 x double] }
%struct.PJ_XYZ = type { double, double, double }
%struct.PJ_LPZ = type { double, double, double }
%struct.PJconsts = type { ptr, ptr, ptr, ptr, ptr, ptr, ptr, ptr, ptr, ptr, ptr, ptr, i32, ptr, ptr, ptr, ptr, ptr, ptr, ptr, ptr, double, double, double, double, double, double, double, double, double, double, double, double, double, double, double, double, double, double, double, double, double, double, i32, i32, i32, i32, i32, i32, i32, i32, i32, i32, i32, ptr, ptr, ptr, ptr, ptr, ptr, double, double, double, double, double, double, double, double, double, double, double, i32, [7 x double], i32, ptr, ptr, double, double, i32, [4 x i8], %"class.std::shared_ptr", i8, double, i8, %"class.std::__cxx11::basic_string", %"class.std::__cxx11::basic_string", %"class.std::__cxx11::basic_string", i8, %"class.std::vector", i32, %"class.std::vector.3", i32, i8, i8, i8, ptr }
%"class.std::shared_ptr" = type { %"class.std::__shared_ptr" }
%"class.std::__shared_ptr" = type { ptr, %"class.std::__shared_count" }
%"class.std::__shared_count" = type { ptr }
%"class.std::__cxx11::basic_string" = type { %"struct.std::__cxx11::basic_string<char>::_Alloc_hider", i64, %union.anon }
%"struct.std::__cxx11::basic_string<char>::_Alloc_hider" = type { ptr }
%union.anon = type { i64, [8 x i8] }
%"class.std::vector" = type { %"struct.std::_Vector_base" }
%"struct.std::_Vector_base" = type { %"struct.std::_Vector_base<osgeo::proj::operation::GridDescription, std::allocator<osgeo::proj::operation::GridDescription>>::_Vector_impl" }
%"struct.std::_Vector_base<osgeo::proj::operation::GridDescription, std::allocator<osgeo::proj::operation::GridDescription>>::_Vector_impl" = type { %"struct.std::_Vector_base<osgeo::proj::operation::GridDescription, std::allocator<osgeo::proj::operation::GridDescription>>::_Vector_impl_data" }
%"struct.std::_Vector_base<osgeo::proj::operation::GridDescription, std::allocator<osgeo::proj::operation::GridDescription>>::_Vector_impl_data" = type { ptr, ptr, ptr }
%"class.std::vector.3" = type { %"struct.std::_Vector_base.4" }
%"struct.std::_Vector_base.4" = type { %"struct.std::_Vector_base<PJCoordOperation, std::allocator<PJCoordOperation>>::_Vector_impl" }
%"struct.std::_Vector_base<PJCoordOperation, std::allocator<PJCoordOperation>>::_Vector_impl" = type { %"struct.std::_Vector_base<PJCoordOperation, std::allocator<PJCoordOperation>>::_Vector_impl_data" }
%"struct.std::_Vector_base<PJCoordOperation, std::allocator<PJCoordOperation>>::_Vector_impl_data" = type { ptr, ptr, ptr }

; Function Attrs: mustprogress uwtable
define internal void @_ZL12fwd_finalizeP8PJconstsR8PJ_COORD(ptr noundef %0, ptr noundef nonnull align 8 dereferenceable(32) %1) #0 {
  %3 = alloca ptr, align 8
  %4 = alloca ptr, align 8
  %5 = alloca %union.PJ_COORD, align 8
  %6 = alloca %union.PJ_COORD, align 8
  %7 = alloca %union.PJ_COORD, align 8
  %8 = alloca %union.PJ_COORD, align 8
  store ptr %0, ptr %3, align 8, !tbaa !3
  store ptr %1, ptr %4, align 8, !tbaa !72
  %9 = load ptr, ptr %3, align 8, !tbaa !3
  %10 = getelementptr inbounds nuw %struct.PJconsts, ptr %9, i32 0, i32 53
  %11 = load i32, ptr %10, align 8, !tbaa !84
  switch i32 %11, label %140 [
    i32 3, label %12
    i32 1, label %45
    i32 2, label %60
    i32 0, label %140
    i32 5, label %140
    i32 4, label %100
  ]

12:                                               ; preds = %2
  %13 = load ptr, ptr %3, align 8, !tbaa !3
  %14 = getelementptr inbounds nuw %struct.PJconsts, ptr %13, i32 0, i32 46
  %15 = load i32, ptr %14, align 4, !tbaa !85
  %16 = icmp ne i32 %15, 0
  br i1 %16, label %17, label %23

17:                                               ; preds = %12
  call void @llvm.lifetime.start.p0(i64 32, ptr %5) #6
  %18 = load ptr, ptr %3, align 8, !tbaa !3
  %19 = getelementptr inbounds nuw %struct.PJconsts, ptr %18, i32 0, i32 55
  %20 = load ptr, ptr %19, align 8, !tbaa !80
  %21 = load ptr, ptr %4, align 8, !tbaa !72
  call void @llvm.memcpy.p0.p0.i64(ptr align 8 %6, ptr align 8 %21, i64 32, i1 false), !tbaa.struct !71
  call void @proj_trans(ptr dead_on_unwind writable sret(%union.PJ_COORD) align 8 %5, ptr noundef %20, i32 noundef 1, ptr noundef byval(%union.PJ_COORD) align 8 %6)
  %22 = load ptr, ptr %4, align 8, !tbaa !72
  call void @llvm.memcpy.p0.p0.i64(ptr align 8 %22, ptr align 8 %5, i64 32, i1 false), !tbaa.struct !71
  call void @llvm.lifetime.end.p0(i64 32, ptr %5) #6
  br label %23

23:                                               ; preds = %17, %12
  %24 = load ptr, ptr %3, align 8, !tbaa !3
  %25 = getelementptr inbounds nuw %struct.PJconsts, ptr %24, i32 0, i32 68
  %26 = load double, ptr %25, align 8, !tbaa !86
  %27 = load ptr, ptr %4, align 8, !tbaa !72
  %28 = getelementptr inbounds nuw %struct.PJ_XYZ, ptr %27, i32 0, i32 0
  %29 = load double, ptr %28, align 8, !tbaa !65
  %30 = fmul double %29, %26
  store double %30, ptr %28, align 8, !tbaa !65
  %31 = load ptr, ptr %3, align 8, !tbaa !3
  %32 = getelementptr inbounds nuw %struct.PJconsts, ptr %31, i32 0, i32 68
  %33 = load double, ptr %32, align 8, !tbaa !86
  %34 = load ptr, ptr %4, align 8, !tbaa !72
  %35 = getelementptr inbounds nuw %struct.PJ_XYZ, ptr %34, i32 0, i32 1
  %36 = load double, ptr %35, align 8, !tbaa !65
  %37 = fmul double %36, %33
  store double %37, ptr %35, align 8, !tbaa !65
  %38 = load ptr, ptr %3, align 8, !tbaa !3
  %39 = getelementptr inbounds nuw %struct.PJconsts, ptr %38, i32 0, i32 68
  %40 = load double, ptr %39, align 8, !tbaa !86
  %41 = load ptr, ptr %4, align 8, !tbaa !72
  %42 = getelementptr inbounds nuw %struct.PJ_XYZ, ptr %41, i32 0, i32 2
  %43 = load double, ptr %42, align 8, !tbaa !65
  %44 = fmul double %43, %40
  store double %44, ptr %42, align 8, !tbaa !65
  br label %140

45:                                               ; preds = %2
  %46 = load ptr, ptr %3, align 8, !tbaa !3
  %47 = getelementptr inbounds nuw %struct.PJconsts, ptr %46, i32 0, i32 21
  %48 = load double, ptr %47, align 8, !tbaa !87
  %49 = load ptr, ptr %4, align 8, !tbaa !72
  %50 = getelementptr inbounds nuw %struct.PJ_XY, ptr %49, i32 0, i32 0
  %51 = load double, ptr %50, align 8, !tbaa !65
  %52 = fmul double %51, %48
  store double %52, ptr %50, align 8, !tbaa !65
  %53 = load ptr, ptr %3, align 8, !tbaa !3
  %54 = getelementptr inbounds nuw %struct.PJconsts, ptr %53, i32 0, i32 21
  %55 = load double, ptr %54, align 8, !tbaa !87
  %56 = load ptr, ptr %4, align 8, !tbaa !72
  %57 = getelementptr inbounds nuw %struct.PJ_XY, ptr %56, i32 0, i32 1
  %58 = load double, ptr %57, align 8, !tbaa !65
  %59 = fmul double %58, %55
  store double %59, ptr %57, align 8, !tbaa !65
  br label %60

60:                                               ; preds = %2, %45
  %61 = load ptr, ptr %3, align 8, !tbaa !3
  %62 = getelementptr inbounds nuw %struct.PJconsts, ptr %61, i32 0, i32 68
  %63 = load double, ptr %62, align 8, !tbaa !86
  %64 = load ptr, ptr %4, align 8, !tbaa !72
  %65 = getelementptr inbounds nuw %struct.PJ_XYZ, ptr %64, i32 0, i32 0
  %66 = load double, ptr %65, align 8, !tbaa !65
  %67 = load ptr, ptr %3, align 8, !tbaa !3
  %68 = getelementptr inbounds nuw %struct.PJconsts, ptr %67, i32 0, i32 62
  %69 = load double, ptr %68, align 8, !tbaa !88
  %70 = fadd double %66, %69
  %71 = fmul double %63, %70
  %72 = load ptr, ptr %4, align 8, !tbaa !72
  %73 = getelementptr inbounds nuw %struct.PJ_XYZ, ptr %72, i32 0, i32 0
  store double %71, ptr %73, align 8, !tbaa !65
  %74 = load ptr, ptr %3, align 8, !tbaa !3
  %75 = getelementptr inbounds nuw %struct.PJconsts, ptr %74, i32 0, i32 68
  %76 = load double, ptr %75, align 8, !tbaa !86
  %77 = load ptr, ptr %4, align 8, !tbaa !72
  %78 = getelementptr inbounds nuw %struct.PJ_XYZ, ptr %77, i32 0, i32 1
  %79 = load double, ptr %78, align 8, !tbaa !65
  %80 = load ptr, ptr %3, align 8, !tbaa !3
  %81 = getelementptr inbounds nuw %struct.PJconsts, ptr %80, i32 0, i32 63
  %82 = load double, ptr %81, align 8, !tbaa !89
  %83 = fadd double %79, %82
  %84 = fmul double %76, %83
  %85 = load ptr, ptr %4, align 8, !tbaa !72
  %86 = getelementptr inbounds nuw %struct.PJ_XYZ, ptr %85, i32 0, i32 1
  store double %84, ptr %86, align 8, !tbaa !65
  %87 = load ptr, ptr %3, align 8, !tbaa !3
  %88 = getelementptr inbounds nuw %struct.PJconsts, ptr %87, i32 0, i32 70
  %89 = load double, ptr %88, align 8, !tbaa !90
  %90 = load ptr, ptr %4, align 8, !tbaa !72
  %91 = getelementptr inbounds nuw %struct.PJ_XYZ, ptr %90, i32 0, i32 2
  %92 = load double, ptr %91, align 8, !tbaa !65
  %93 = load ptr, ptr %3, align 8, !tbaa !3
  %94 = getelementptr inbounds nuw %struct.PJconsts, ptr %93, i32 0, i32 64
  %95 = load double, ptr %94, align 8, !tbaa !91
  %96 = fadd double %92, %95
  %97 = fmul double %89, %96
  %98 = load ptr, ptr %4, align 8, !tbaa !72
  %99 = getelementptr inbounds nuw %struct.PJ_XYZ, ptr %98, i32 0, i32 2
  store double %97, ptr %99, align 8, !tbaa !65
  br label %140

100:                                              ; preds = %2
  %101 = load ptr, ptr %3, align 8, !tbaa !3
  %102 = getelementptr inbounds nuw %struct.PJconsts, ptr %101, i32 0, i32 70
  %103 = load double, ptr %102, align 8, !tbaa !90
  %104 = load ptr, ptr %4, align 8, !tbaa !72
  %105 = getelementptr inbounds nuw %struct.PJ_LPZ, ptr %104, i32 0, i32 2
  %106 = load double, ptr %105, align 8, !tbaa !65
  %107 = load ptr, ptr %3, align 8, !tbaa !3
  %108 = getelementptr inbounds nuw %struct.PJconsts, ptr %107, i32 0, i32 64
  %109 = load double, ptr %108, align 8, !tbaa !91
  %110 = fadd double %106, %109
  %111 = fmul double %103, %110
  %112 = load ptr, ptr %4, align 8, !tbaa !72
  %113 = getelementptr inbounds nuw %struct.PJ_LPZ, ptr %112, i32 0, i32 2
  store double %111, ptr %113, align 8, !tbaa !65
  %114 = load ptr, ptr %3, align 8, !tbaa !3
  %115 = getelementptr inbounds nuw %struct.PJconsts, ptr %114, i32 0, i32 78
  %116 = load i32, ptr %115, align 8, !tbaa !92
  %117 = icmp ne i32 %116, 0
  br i1 %117, label %118, label %139

118:                                              ; preds = %100
  %119 = load ptr, ptr %4, align 8, !tbaa !72
  %120 = getelementptr inbounds nuw %struct.PJ_LPZ, ptr %119, i32 0, i32 0
  %121 = load double, ptr %120, align 8, !tbaa !65
  %122 = fcmp une double %121, 0x7FF0000000000000
  br i1 %122, label %123, label %138

123:                                              ; preds = %118
  %124 = load ptr, ptr %3, align 8, !tbaa !3
  %125 = getelementptr inbounds nuw %struct.PJconsts, ptr %124, i32 0, i32 77
  %126 = load double, ptr %125, align 8, !tbaa !93
  %127 = load ptr, ptr %4, align 8, !tbaa !72
  %128 = getelementptr inbounds nuw %struct.PJ_LPZ, ptr %127, i32 0, i32 0
  %129 = load double, ptr %128, align 8, !tbaa !65
  %130 = load ptr, ptr %3, align 8, !tbaa !3
  %131 = getelementptr inbounds nuw %struct.PJconsts, ptr %130, i32 0, i32 77
  %132 = load double, ptr %131, align 8, !tbaa !93
  %133 = fsub double %129, %132
  %134 = call noundef double @_Z6adjlond(double noundef %133)
  %135 = fadd double %126, %134
  %136 = load ptr, ptr %4, align 8, !tbaa !72
  %137 = getelementptr inbounds nuw %struct.PJ_LPZ, ptr %136, i32 0, i32 0
  store double %135, ptr %137, align 8, !tbaa !65
  br label %138

138:                                              ; preds = %123, %118
  br label %139

139:                                              ; preds = %138, %100
  br label %140

140:                                              ; preds = %2, %139, %2, %2, %60, %23
  %141 = load ptr, ptr %3, align 8, !tbaa !3
  %142 = getelementptr inbounds nuw %struct.PJconsts, ptr %141, i32 0, i32 54
  %143 = load ptr, ptr %142, align 8, !tbaa !94
  %144 = icmp ne ptr %143, null
  br i1 %144, label %145, label %151

145:                                              ; preds = %140
  call void @llvm.lifetime.start.p0(i64 32, ptr %7) #6
  %146 = load ptr, ptr %3, align 8, !tbaa !3
  %147 = getelementptr inbounds nuw %struct.PJconsts, ptr %146, i32 0, i32 54
  %148 = load ptr, ptr %147, align 8, !tbaa !94
  %149 = load ptr, ptr %4, align 8, !tbaa !72
  call void @llvm.memcpy.p0.p0.i64(ptr align 8 %8, ptr align 8 %149, i64 32, i1 false), !tbaa.struct !71
  call void @proj_trans(ptr dead_on_unwind writable sret(%union.PJ_COORD) align 8 %7, ptr noundef %148, i32 noundef 1, ptr noundef byval(%union.PJ_COORD) align 8 %8)
  %150 = load ptr, ptr %4, align 8, !tbaa !72
  call void @llvm.memcpy.p0.p0.i64(ptr align 8 %150, ptr align 8 %7, i64 32, i1 false), !tbaa.struct !71
  call void @llvm.lifetime.end.p0(i64 32, ptr %7) #6
  br label %151

151:                                              ; preds = %145, %140
  ret void
}