; Function Attrs: mustprogress uwtable
define internal fastcc void @_ZL12fwd_finalizeP8PJconstsR8PJ_COORD(ptr noundef readonly captures(none) %0, ptr noundef nonnull align 8 captures(none) dereferenceable(32) %1) unnamed_addr #0 {
  %3 = alloca %union.PJ_COORD, align 8
  %4 = alloca %union.PJ_COORD, align 8
  %5 = getelementptr inbounds nuw i8, ptr %0, i64 384
  %6 = load i32, ptr %5, align 8, !tbaa !82
  switch i32 %6, label %78 [
    i32 3, label %7
    i32 1, label %26
    i32 2, label %._crit_edge
    i32 4, label %58
  ]

._crit_edge:                                      ; preds = %2
  %.pre = load double, ptr %1, align 8, !tbaa !62
  %.phi.trans.insert = getelementptr inbounds nuw i8, ptr %1, i64 8
  %.pre43 = load double, ptr %.phi.trans.insert, align 8, !tbaa !62
  br label %35

7:                                                ; preds = %2
  %8 = getelementptr inbounds nuw i8, ptr %0, i64 356
  %9 = load i32, ptr %8, align 4, !tbaa !83
  %.not41 = icmp eq i32 %9, 0
  br i1 %.not41, label %13, label %10

10:                                               ; preds = %7
  call void @llvm.lifetime.start.p0(i64 32, ptr nonnull %3) #6
  %11 = getelementptr inbounds nuw i8, ptr %0, i64 400
  %12 = load ptr, ptr %11, align 8, !tbaa !78
  call void @proj_trans(ptr dead_on_unwind nonnull writable sret(%union.PJ_COORD) align 8 %3, ptr noundef %12, i32 noundef 1, ptr noundef nonnull byval(%union.PJ_COORD) align 8 %1)
  call void @llvm.memcpy.p0.p0.i64(ptr noundef nonnull align 8 dereferenceable(32) %1, ptr noundef nonnull align 8 dereferenceable(32) %3, i64 32, i1 false), !tbaa.struct !71
  call void @llvm.lifetime.end.p0(i64 32, ptr nonnull %3) #6
  br label %13

13:                                               ; preds = %10, %7
  %14 = getelementptr inbounds nuw i8, ptr %0, i64 504
  %15 = load double, ptr %14, align 8, !tbaa !84
  %16 = load double, ptr %1, align 8, !tbaa !62
  %17 = fmul double %15, %16
  store double %17, ptr %1, align 8, !tbaa !62
  %18 = load double, ptr %14, align 8, !tbaa !84
  %19 = getelementptr inbounds nuw i8, ptr %1, i64 8
  %20 = load double, ptr %19, align 8, !tbaa !62
  %21 = fmul double %18, %20
  store double %21, ptr %19, align 8, !tbaa !62
  %22 = load double, ptr %14, align 8, !tbaa !84
  %23 = getelementptr inbounds nuw i8, ptr %1, i64 16
  %24 = load double, ptr %23, align 8, !tbaa !62
  %25 = fmul double %22, %24
  store double %25, ptr %23, align 8, !tbaa !62
  br label %78

26:                                               ; preds = %2
  %27 = getelementptr inbounds nuw i8, ptr %0, i64 168
  %28 = load double, ptr %27, align 8, !tbaa !85
  %29 = load double, ptr %1, align 8, !tbaa !62
  %30 = fmul double %28, %29
  store double %30, ptr %1, align 8, !tbaa !62
  %31 = load double, ptr %27, align 8, !tbaa !85
  %32 = getelementptr inbounds nuw i8, ptr %1, i64 8
  %33 = load double, ptr %32, align 8, !tbaa !62
  %34 = fmul double %31, %33
  store double %34, ptr %32, align 8, !tbaa !62
  br label %35

35:                                               ; preds = %._crit_edge, %26
  %36 = phi double [ %.pre43, %._crit_edge ], [ %34, %26 ]
  %37 = phi double [ %.pre, %._crit_edge ], [ %30, %26 ]
  %38 = getelementptr inbounds nuw i8, ptr %0, i64 504
  %39 = load double, ptr %38, align 8, !tbaa !84
  %40 = getelementptr inbounds nuw i8, ptr %0, i64 456
  %41 = load double, ptr %40, align 8, !tbaa !86
  %42 = fadd double %37, %41
  %43 = fmul double %39, %42
  store double %43, ptr %1, align 8, !tbaa !62
  %44 = load double, ptr %38, align 8, !tbaa !84
  %45 = getelementptr inbounds nuw i8, ptr %1, i64 8
  %46 = getelementptr inbounds nuw i8, ptr %0, i64 464
  %47 = load double, ptr %46, align 8, !tbaa !87
  %48 = fadd double %36, %47
  %49 = fmul double %44, %48
  store double %49, ptr %45, align 8, !tbaa !62
  %50 = getelementptr inbounds nuw i8, ptr %0, i64 520
  %51 = load double, ptr %50, align 8, !tbaa !88
  %52 = getelementptr inbounds nuw i8, ptr %1, i64 16
  %53 = load double, ptr %52, align 8, !tbaa !62
  %54 = getelementptr inbounds nuw i8, ptr %0, i64 472
  %55 = load double, ptr %54, align 8, !tbaa !89
  %56 = fadd double %53, %55
  %57 = fmul double %51, %56
  store double %57, ptr %52, align 8, !tbaa !62
  br label %78

58:                                               ; preds = %2
  %59 = getelementptr inbounds nuw i8, ptr %0, i64 520
  %60 = load double, ptr %59, align 8, !tbaa !88
  %61 = getelementptr inbounds nuw i8, ptr %1, i64 16
  %62 = load double, ptr %61, align 8, !tbaa !62
  %63 = getelementptr inbounds nuw i8, ptr %0, i64 472
  %64 = load double, ptr %63, align 8, !tbaa !89
  %65 = fadd double %62, %64
  %66 = fmul double %60, %65
  store double %66, ptr %61, align 8, !tbaa !62
  %67 = getelementptr inbounds nuw i8, ptr %0, i64 632
  %68 = load i32, ptr %67, align 8, !tbaa !90
  %.not = icmp eq i32 %68, 0
  br i1 %.not, label %78, label %69

69:                                               ; preds = %58
  %70 = load double, ptr %1, align 8, !tbaa !62
  %71 = fcmp une double %70, 0x7FF0000000000000
  br i1 %71, label %72, label %78

72:                                               ; preds = %69
  %73 = getelementptr inbounds nuw i8, ptr %0, i64 624
  %74 = load double, ptr %73, align 8, !tbaa !91
  %75 = fsub double %70, %74
  %76 = tail call noundef double @_Z6adjlond(double noundef %75)
  %77 = fadd double %74, %76
  store double %77, ptr %1, align 8, !tbaa !62
  br label %78

78:                                               ; preds = %58, %72, %69, %35, %13, %2
  %79 = getelementptr inbounds nuw i8, ptr %0, i64 392
  %80 = load ptr, ptr %79, align 8, !tbaa !92
  %.not42 = icmp eq ptr %80, null
  br i1 %.not42, label %82, label %81

81:                                               ; preds = %78
  call void @llvm.lifetime.start.p0(i64 32, ptr nonnull %4) #6
  call void @proj_trans(ptr dead_on_unwind nonnull writable sret(%union.PJ_COORD) align 8 %4, ptr noundef nonnull %80, i32 noundef 1, ptr noundef nonnull byval(%union.PJ_COORD) align 8 %1)
  call void @llvm.memcpy.p0.p0.i64(ptr noundef nonnull align 8 dereferenceable(32) %1, ptr noundef nonnull align 8 dereferenceable(32) %4, i64 32, i1 false), !tbaa.struct !71
  call void @llvm.lifetime.end.p0(i64 32, ptr nonnull %4) #6
  br label %82

82:                                               ; preds = %81, %78
  ret void
}